; Function Attrs: mustprogress nounwind uwtable
define hidden void @_ZN20CompilerTypeConstant9serializeER19JfrCheckpointWriter(ptr nocapture nonnull readnone align 8 %0, ptr noundef nonnull align 8 dereferenceable(73) %1) unnamed_addr #0 align 2 {
  tail call void @_ZN19JfrCheckpointWriter11write_countEj(ptr noundef nonnull align 8 dereferenceable(73) %1, i32 noundef 4) #8
  br label %_Z17compilertype2name12CompilerType.exit

_Z17compilertype2name12CompilerType.exit:         ; preds = %2, %_Z17compilertype2name12CompilerType.exit
  %indvars.iv = phi i64 [ 0, %2 ], [ %indvars.iv.next, %_Z17compilertype2name12CompilerType.exit ]
  tail call void @_ZN19JfrCheckpointWriter9write_keyEm(ptr noundef nonnull align 8 dereferenceable(73) %1, i64 noundef %indvars.iv) #8
  %3 = getelementptr inbounds [4 x ptr], ptr @compilertype2name_tab, i64 0, i64 %indvars.iv
  %4 = load ptr, ptr %3, align 8
  tail call void @_ZN10WriterHostI11EncoderHostI20BigEndianEncoderImplS1_ES0_I20Varint128EncoderImplS1_E30AcquireReleaseMemoryWriterHostI7AdapterI18JfrCheckpointFlushE8StackObjEE10write_utf8EPKc(ptr noundef nonnull align 8 dereferenceable(41) %1, ptr noundef %4)
  %indvars.iv.next = add nuw nsw i64 %indvars.iv, 1
  %exitcond.not = icmp eq i64 %indvars.iv.next, 4
  br i1 %exitcond.not, label %5, label %_Z17compilertype2name12CompilerType.exit, !llvm.loop !18

5:                                                ; preds = %_Z17compilertype2name12CompilerType.exit
  ret void
}